; Function Attrs: mustprogress uwtable
define internal void @"_ZZN4pkpy12add_module_cEPNS_2VMEEN4$_468__invokeES1_PNS_8PyObjectE"(ptr dead_on_unwind noalias writable sret(%"struct.pkpy::Str") align 8 %0, ptr noundef nonnull %1, ptr nocapture noundef readonly %2) #3 align 2 personality ptr @__gxx_personality_v0 {
  %4 = alloca %"struct.pkpy::SStream", align 8
  %5 = alloca %"struct.pkpy::Str", align 8
  call void @llvm.lifetime.start.p0(i64 32, ptr nonnull %5)
  %6 = tail call i16 @_ZN4pkpy2VM28_find_type_in_cxx_typeid_mapINS_5VoidPEEENS_4TypeEv(ptr noundef nonnull align 8 dereferenceable(264913) %1), !noalias !47
  %7 = getelementptr inbounds i8, ptr %2, i64 24
  call void @llvm.lifetime.start.p0(i64 24, ptr nonnull %4), !noalias !47
  store i32 0, ptr %4, align 8, !noalias !50
  %8 = getelementptr inbounds i8, ptr %4, i64 4
  store i32 64, ptr %8, align 4, !noalias !50
  %9 = tail call noundef ptr @_ZN4pkpy12pool64_allocEm(i64 noundef 64) #24, !noalias !50
  %10 = getelementptr inbounds i8, ptr %4, i64 8
  store ptr %9, ptr %10, align 8, !noalias !50
  %11 = getelementptr inbounds i8, ptr %4, i64 16
  store i32 -1, ptr %11, align 8, !noalias !50
  %12 = load ptr, ptr %7, align 8, !noalias !50
  invoke void @_ZN4pkpy7SStream9write_hexEPv(ptr noundef nonnull align 8 dereferenceable(20) %4, ptr noundef %12)
          to label %13 unwind label %17, !noalias !50

13:                                               ; preds = %3
  invoke void @_ZN4pkpy7SStream3strEv(ptr dead_on_unwind nonnull writable sret(%"struct.pkpy::Str") align 8 %5, ptr noundef nonnull align 8 dereferenceable(20) %4)
          to label %14 unwind label %17, !noalias !47

14:                                               ; preds = %13
  %15 = load ptr, ptr %10, align 8, !noalias !50
  %.not.i.i.i.i = icmp eq ptr %15, null
  br i1 %.not.i.i.i.i, label %_ZNK4pkpy5VoidP3hexEv.exit.i, label %16

16:                                               ; preds = %14
  call void @_ZN4pkpy14pool64_deallocEPv(ptr noundef nonnull %15) #24, !noalias !47
  br label %_ZNK4pkpy5VoidP3hexEv.exit.i

17:                                               ; preds = %13, %3
  %18 = landingpad { ptr, i32 }
          cleanup
  %19 = load ptr, ptr %10, align 8, !noalias !50
  %.not.i.i2.i.i = icmp eq ptr %19, null
  br i1 %.not.i.i2.i.i, label %common.resume.i, label %20

20:                                               ; preds = %17
  call void @_ZN4pkpy14pool64_deallocEPv(ptr noundef nonnull %19) #24, !noalias !47
  br label %common.resume.i

common.resume.i:                                  ; preds = %21, %20, %17
  %common.resume.op.i = phi { ptr, i32 } [ %22, %21 ], [ %18, %20 ], [ %18, %17 ]
  resume { ptr, i32 } %common.resume.op.i

_ZNK4pkpy5VoidP3hexEv.exit.i:                     ; preds = %16, %14
  call void @llvm.lifetime.end.p0(i64 24, ptr nonnull %4), !noalias !47
  invoke void @_ZN4pkpy2_SIJRA2_KcRA4_S1_RA6_S1_NS_3StrES3_EEES8_DpOT_(ptr dead_on_unwind writable sret(%"struct.pkpy::Str") align 8 %0, ptr noundef nonnull align 1 dereferenceable(2) @.str.93, ptr noundef nonnull align 1 dereferenceable(4) @.str.99, ptr noundef nonnull align 1 dereferenceable(6) @.str.95, ptr noundef nonnull align 8 dereferenceable(32) %5, ptr noundef nonnull align 1 dereferenceable(2) @.str.83)
          to label %"_ZZN4pkpy12add_module_cEPNS_2VMEENK4$_46clES1_PNS_8PyObjectE.exit" unwind label %21

21:                                               ; preds = %_ZNK4pkpy5VoidP3hexEv.exit.i
  %22 = landingpad { ptr, i32 }
          cleanup
  call void @_ZN4pkpy3StrD1Ev(ptr noundef nonnull align 8 dereferenceable(32) %5) #24
  br label %common.resume.i

"_ZZN4pkpy12add_module_cEPNS_2VMEENK4$_46clES1_PNS_8PyObjectE.exit": ; preds = %_ZNK4pkpy5VoidP3hexEv.exit.i
  call void @_ZN4pkpy3StrD1Ev(ptr noundef nonnull align 8 dereferenceable(32) %5) #24
  call void @llvm.lifetime.end.p0(i64 32, ptr nonnull %5)
  ret void
}